target datalayout = "e-m:e-p270:32:32-p271:32:32-p272:64:64-i64:64-i128:128-f80:128-n8:16:32:64-S128"
target triple = "x86_64-pc-linux-gnu"

@hex_dump_buffer.binhex = internal global [16 x i8] c"0123456789abcdef", align 16

; Function Attrs: nounwind null_pointer_is_valid sspstrong uwtable
define zeroext i8 @EBCDIC_to_ASCII1(i8 noundef zeroext %0) #8 {
  %2 = alloca i8, align 1
  store i8 %0, ptr %2, align 1
  %3 = load i8, ptr %2, align 1
  %4 = zext i8 %3 to i64
  %5 = getelementptr [256 x i8], ptr @EBCDIC_translate_ASCII, i64 0, i64 %4
  %6 = load i8, ptr %5, align 1
  ret i8 %6
}

; Function Attrs: alwaysinline nounwind
define internal ptr @memset.inline(ptr %0, i32 %1, i64 %2) #13 {
  %4 = alloca ptr, align 8
  %5 = alloca i32, align 4
  %6 = alloca i64, align 8
  store ptr %0, ptr %4, align 8
  store i32 %1, ptr %5, align 4
  store i64 %2, ptr %6, align 8
  %7 = load ptr, ptr %4, align 8
  %8 = load i32, ptr %5, align 4
  %9 = load i64, ptr %6, align 8
  %10 = load ptr, ptr %4, align 8
  %11 = call i64 @llvm.objectsize.i64.p0(ptr %10, i1 false, i1 true, i1 true)
  %12 = call ptr @__memset_chk(ptr noundef %7, i32 noundef %8, i64 noundef %9, i64 noundef %11) #15
  ret ptr %12
}

; Function Attrs: null_pointer_is_valid sspstrong uwtable
define zeroext i1 @hex_dump_buffer(ptr noundef %0, ptr noundef %1, ptr noundef %2, i32 noundef %3, i32 noundef %4, i32 noundef %5) #0 {
  %7 = alloca i1, align 1
  %8 = alloca ptr, align 8
  %9 = alloca ptr, align 8
  %10 = alloca ptr, align 8
  %11 = alloca i32, align 4
  %12 = alloca i32, align 4
  %13 = alloca i32, align 4
  %14 = alloca i32, align 4
  %15 = alloca i32, align 4
  %16 = alloca i32, align 4
  %17 = alloca i32, align 4
  %18 = alloca i32, align 4
  %19 = alloca i8, align 1
  %20 = alloca [79 x i8], align 16
  %21 = alloca i32, align 4
  %22 = alloca i32, align 4
  store ptr %0, ptr %8, align 8
  store ptr %1, ptr %9, align 8
  store ptr %2, ptr %10, align 8
  store i32 %3, ptr %11, align 4
  store i32 %4, ptr %12, align 4
  store i32 %5, ptr %13, align 4
  call void @llvm.lifetime.start.p0(i64 4, ptr %14) #15
  call void @llvm.lifetime.start.p0(i64 4, ptr %15) #15
  call void @llvm.lifetime.start.p0(i64 4, ptr %16) #15
  call void @llvm.lifetime.start.p0(i64 4, ptr %17) #15
  call void @llvm.lifetime.start.p0(i64 4, ptr %18) #15
  call void @llvm.lifetime.start.p0(i64 1, ptr %19) #15
  call void @llvm.lifetime.start.p0(i64 79, ptr %20) #15
  call void @llvm.lifetime.start.p0(i64 4, ptr %21) #15
  %23 = load i32, ptr %11, align 4
  %24 = sub i32 %23, 1
  %25 = and i32 %24, -268435456
  %26 = icmp ne i32 %25, 0
  br i1 %26, label %27, label %28

27:                                               ; preds = %6
  store i32 8, ptr %21, align 4
  br label %50

28:                                               ; preds = %6
  %29 = load i32, ptr %11, align 4
  %30 = sub i32 %29, 1
  %31 = and i32 %30, 251658240
  %32 = icmp ne i32 %31, 0
  br i1 %32, label %33, label %34

33:                                               ; preds = %28
  store i32 7, ptr %21, align 4
  br label %49

34:                                               ; preds = %28
  %35 = load i32, ptr %11, align 4
  %36 = sub i32 %35, 1
  %37 = and i32 %36, 15728640
  %38 = icmp ne i32 %37, 0
  br i1 %38, label %39, label %40

39:                                               ; preds = %34
  store i32 6, ptr %21, align 4
  br label %48

40:                                               ; preds = %34
  %41 = load i32, ptr %11, align 4
  %42 = sub i32 %41, 1
  %43 = and i32 %42, 983040
  %44 = icmp ne i32 %43, 0
  br i1 %44, label %45, label %46

45:                                               ; preds = %40
  store i32 5, ptr %21, align 4
  br label %47

46:                                               ; preds = %40
  store i32 4, ptr %21, align 4
  br label %47

47:                                               ; preds = %46, %45
  br label %48

48:                                               ; preds = %47, %39
  br label %49

49:                                               ; preds = %48, %33
  br label %50

50:                                               ; preds = %49, %27
  store i32 0, ptr %14, align 4
  store i32 0, ptr %15, align 4
  store i32 0, ptr %16, align 4
  store i32 0, ptr %17, align 4
  br label %51

51:                                               ; preds = %189, %50
  %52 = load i32, ptr %15, align 4
  %53 = load i32, ptr %11, align 4
  %54 = icmp ult i32 %52, %53
  br i1 %54, label %55, label %190

55:                                               ; preds = %51
  %56 = load i32, ptr %15, align 4
  %57 = and i32 %56, 15
  %58 = icmp eq i32 %57, 0
  br i1 %58, label %59, label %106

59:                                               ; preds = %55
  store i32 0, ptr %16, align 4
  %60 = load i32, ptr %21, align 4
  store i32 %60, ptr %18, align 4
  br label %61

61:                                               ; preds = %78, %59
  %62 = load i32, ptr %18, align 4
  %63 = add i32 %62, -1
  store i32 %63, ptr %18, align 4
  %64 = load i32, ptr %14, align 4
  %65 = load i32, ptr %18, align 4
  %66 = mul i32 %65, 4
  %67 = lshr i32 %64, %66
  %68 = and i32 %67, 15
  %69 = trunc i32 %68 to i8
  store i8 %69, ptr %19, align 1
  %70 = load i8, ptr %19, align 1
  %71 = zext i8 %70 to i64
  %72 = getelementptr [16 x i8], ptr @hex_dump_buffer.binhex, i64 0, i64 %71
  %73 = load i8, ptr %72, align 1
  %74 = load i32, ptr %16, align 4
  %75 = add i32 %74, 1
  store i32 %75, ptr %16, align 4
  %76 = zext i32 %74 to i64
  %77 = getelementptr [79 x i8], ptr %20, i64 0, i64 %76
  store i8 %73, ptr %77, align 1
  br label %78

78:                                               ; preds = %61
  %79 = load i32, ptr %18, align 4
  %80 = icmp ne i32 %79, 0
  br i1 %80, label %61, label %81, !llvm.loop !37

81:                                               ; preds = %78
  %82 = load i32, ptr %16, align 4
  %83 = add i32 %82, 1
  store i32 %83, ptr %16, align 4
  %84 = zext i32 %82 to i64
  %85 = getelementptr [79 x i8], ptr %20, i64 0, i64 %84
  store i8 32, ptr %85, align 1
  %86 = load i32, ptr %16, align 4
  %87 = add i32 %86, 1
  store i32 %87, ptr %16, align 4
  %88 = zext i32 %86 to i64
  %89 = getelementptr [79 x i8], ptr %20, i64 0, i64 %88
  store i8 32, ptr %89, align 1
  %90 = getelementptr inbounds [79 x i8], ptr %20, i64 0, i64 0
  %91 = load i32, ptr %16, align 4
  %92 = zext i32 %91 to i64
  %93 = getelementptr i8, ptr %90, i64 %92
  %94 = call ptr @memset.inline(ptr noundef %93, i32 noundef 32, i64 noundef 68) #15
  %95 = load i32, ptr %16, align 4
  %96 = add i32 %95, 48
  %97 = add i32 %96, 2
  store i32 %97, ptr %17, align 4
  %98 = load i32, ptr %13, align 4
  %99 = icmp eq i32 %98, 1
  br i1 %99, label %100, label %105

100:                                              ; preds = %81
  %101 = load i32, ptr %17, align 4
  %102 = add i32 %101, 1
  store i32 %102, ptr %17, align 4
  %103 = zext i32 %101 to i64
  %104 = getelementptr [79 x i8], ptr %20, i64 0, i64 %103
  store i8 124, ptr %104, align 1
  br label %105

105:                                              ; preds = %100, %81
  br label %106

106:                                              ; preds = %105, %55
  %107 = load ptr, ptr %10, align 8
  %108 = getelementptr i8, ptr %107, i32 1
  store ptr %108, ptr %10, align 8
  %109 = load i8, ptr %107, align 1
  store i8 %109, ptr %19, align 1
  %110 = load i8, ptr %19, align 1
  %111 = zext i8 %110 to i32
  %112 = ashr i32 %111, 4
  %113 = sext i32 %112 to i64
  %114 = getelementptr [16 x i8], ptr @hex_dump_buffer.binhex, i64 0, i64 %113
  %115 = load i8, ptr %114, align 1
  %116 = load i32, ptr %16, align 4
  %117 = add i32 %116, 1
  store i32 %117, ptr %16, align 4
  %118 = zext i32 %116 to i64
  %119 = getelementptr [79 x i8], ptr %20, i64 0, i64 %118
  store i8 %115, ptr %119, align 1
  %120 = load i8, ptr %19, align 1
  %121 = zext i8 %120 to i32
  %122 = and i32 %121, 15
  %123 = sext i32 %122 to i64
  %124 = getelementptr [16 x i8], ptr @hex_dump_buffer.binhex, i64 0, i64 %123
  %125 = load i8, ptr %124, align 1
  %126 = load i32, ptr %16, align 4
  %127 = add i32 %126, 1
  store i32 %127, ptr %16, align 4
  %128 = zext i32 %126 to i64
  %129 = getelementptr [79 x i8], ptr %20, i64 0, i64 %128
  store i8 %125, ptr %129, align 1
  %130 = load i32, ptr %16, align 4
  %131 = add i32 %130, 1
  store i32 %131, ptr %16, align 4
  %132 = load i32, ptr %13, align 4
  %133 = icmp ne i32 %132, 2
  br i1 %133, label %134, label %159

134:                                              ; preds = %106
  %135 = load i32, ptr %12, align 4
  %136 = icmp eq i32 %135, 1
  br i1 %136, label %137, label %140

137:                                              ; preds = %134
  %138 = load i8, ptr %19, align 1
  %139 = call zeroext i8 @EBCDIC_to_ASCII1(i8 noundef zeroext %138)
  store i8 %139, ptr %19, align 1
  br label %140

140:                                              ; preds = %137, %134
  %141 = load i8, ptr %19, align 1
  %142 = zext i8 %141 to i32
  %143 = icmp sge i32 %142, 32
  br i1 %143, label %144, label %151

144:                                              ; preds = %140
  %145 = load i8, ptr %19, align 1
  %146 = zext i8 %145 to i32
  %147 = icmp slt i32 %146, 127
  br i1 %147, label %148, label %151

148:                                              ; preds = %144
  %149 = load i8, ptr %19, align 1
  %150 = zext i8 %149 to i32
  br label %152

151:                                              ; preds = %144, %140
  br label %152

152:                                              ; preds = %151, %148
  %153 = phi i32 [ %150, %148 ], [ 46, %151 ]
  %154 = trunc i32 %153 to i8
  %155 = load i32, ptr %17, align 4
  %156 = add i32 %155, 1
  store i32 %156, ptr %17, align 4
  %157 = zext i32 %155 to i64
  %158 = getelementptr [79 x i8], ptr %20, i64 0, i64 %157
  store i8 %154, ptr %158, align 1
  br label %159

159:                                              ; preds = %152, %106
  %160 = load i32, ptr %15, align 4
  %161 = add i32 %160, 1
  store i32 %161, ptr %15, align 4
  %162 = load i32, ptr %15, align 4
  %163 = and i32 %162, 15
  %164 = icmp eq i32 %163, 0
  br i1 %164, label %169, label %165

165:                                              ; preds = %159
  %166 = load i32, ptr %15, align 4
  %167 = load i32, ptr %11, align 4
  %168 = icmp eq i32 %166, %167
  br i1 %168, label %169, label %189

169:                                              ; preds = %165, %159
  %170 = load i32, ptr %13, align 4
  %171 = icmp eq i32 %170, 1
  br i1 %171, label %172, label %177

172:                                              ; preds = %169
  %173 = load i32, ptr %17, align 4
  %174 = add i32 %173, 1
  store i32 %174, ptr %17, align 4
  %175 = zext i32 %173 to i64
  %176 = getelementptr [79 x i8], ptr %20, i64 0, i64 %175
  store i8 124, ptr %176, align 1
  br label %177

177:                                              ; preds = %172, %169
  %178 = load i32, ptr %17, align 4
  %179 = zext i32 %178 to i64
  %180 = getelementptr [79 x i8], ptr %20, i64 0, i64 %179
  store i8 0, ptr %180, align 1
  %181 = load ptr, ptr %8, align 8
  %182 = load ptr, ptr %9, align 8
  %183 = getelementptr inbounds [79 x i8], ptr %20, i64 0, i64 0
  %184 = call zeroext i1 %181(ptr noundef %182, ptr noundef %183)
  br i1 %184, label %186, label %185

185:                                              ; preds = %177
  store i1 false, ptr %7, align 1
  store i32 1, ptr %22, align 4
  br label %191

186:                                              ; preds = %177
  %187 = load i32, ptr %14, align 4
  %188 = add i32 %187, 16
  store i32 %188, ptr %14, align 4
  br label %189

189:                                              ; preds = %186, %165
  br label %51, !llvm.loop !38

190:                                              ; preds = %51
  store i1 true, ptr %7, align 1
  store i32 1, ptr %22, align 4
  br label %191

191:                                              ; preds = %190, %185
  call void @llvm.lifetime.end.p0(i64 4, ptr %21) #15
  call void @llvm.lifetime.end.p0(i64 79, ptr %20) #15
  call void @llvm.lifetime.end.p0(i64 1, ptr %19) #15
  call void @llvm.lifetime.end.p0(i64 4, ptr %18) #15
  call void @llvm.lifetime.end.p0(i64 4, ptr %17) #15
  call void @llvm.lifetime.end.p0(i64 4, ptr %16) #15
  call void @llvm.lifetime.end.p0(i64 4, ptr %15) #15
  call void @llvm.lifetime.end.p0(i64 4, ptr %14) #15
  %192 = load i1, ptr %7, align 1
  ret i1 %192
}