; Function Attrs: null_pointer_is_valid sspstrong uwtable
define noundef zeroext i1 @hex_dump_buffer(ptr noundef readonly captures(none) %0, ptr noundef %1, ptr noundef readonly captures(none) %2, i32 noundef %3, i32 noundef %4, i32 noundef %5) local_unnamed_addr #0 {
  %7 = alloca [79 x i8], align 16
  call void @llvm.lifetime.start.p0(i64 79, ptr nonnull %7) #23
  %8 = add i32 %3, -1
  %.not = icmp ult i32 %8, 268435456
  br i1 %.not, label %9, label %12

9:                                                ; preds = %6
  %.not57 = icmp samesign ult i32 %8, 16777216
  br i1 %.not57, label %10, label %.lr.ph

10:                                               ; preds = %9
  %.not58 = icmp samesign ult i32 %8, 1048576
  br i1 %.not58, label %11, label %.lr.ph

11:                                               ; preds = %10
  %.not59 = icmp samesign ult i32 %8, 65536
  %. = select i1 %.not59, i32 4, i32 5
  br label %.lr.ph

12:                                               ; preds = %6
  %13 = icmp eq i32 %3, 0
  br i1 %13, label %._crit_edge, label %.lr.ph

.lr.ph:                                           ; preds = %9, %10, %11, %12
  %.080 = phi i32 [ 8, %12 ], [ %., %11 ], [ 6, %10 ], [ 7, %9 ]
  %14 = icmp eq i32 %5, 1
  %.not61 = icmp eq i32 %5, 2
  %15 = icmp eq i32 %4, 1
  br label %16

16:                                               ; preds = %.lr.ph, %93
  %.04773 = phi i32 [ 0, %.lr.ph ], [ %.3, %93 ]
  %.04872 = phi i32 [ 0, %.lr.ph ], [ %63, %93 ]
  %.05171 = phi i32 [ 0, %.lr.ph ], [ %94, %93 ]
  %.05270 = phi i32 [ 0, %.lr.ph ], [ %.153, %93 ]
  %.05569 = phi ptr [ %2, %.lr.ph ], [ %48, %93 ]
  %17 = and i32 %.05171, 15
  %18 = icmp eq i32 %17, 0
  br i1 %18, label %.preheader, label %._crit_edge77

._crit_edge77:                                    ; preds = %16
  %.pre = zext i32 %.04872 to i64
  br label %47

.preheader:                                       ; preds = %16, %.preheader
  %indvars.iv = phi i64 [ %indvars.iv.next, %.preheader ], [ 0, %16 ]
  %.046 = phi i32 [ %19, %.preheader ], [ %.080, %16 ]
  %19 = add nsw i32 %.046, -1
  %20 = shl i32 %19, 2
  %21 = lshr i32 %.05270, %20
  %22 = and i32 %21, 15
  %23 = zext nneg i32 %22 to i64
  %24 = getelementptr [16 x i8], ptr @hex_dump_buffer.binhex, i64 0, i64 %23
  %25 = load i8, ptr %24, align 1
  %indvars.iv.next = add nuw nsw i64 %indvars.iv, 1
  %26 = getelementptr [79 x i8], ptr %7, i64 0, i64 %indvars.iv
  store i8 %25, ptr %26, align 1
  %.not60 = icmp eq i32 %19, 0
  br i1 %.not60, label %27, label %.preheader, !llvm.loop !35

27:                                               ; preds = %.preheader
  %28 = trunc nuw nsw i64 %indvars.iv to i32
  %29 = add nuw i64 %indvars.iv, 2
  %30 = and i64 %indvars.iv.next, 4294967295
  %31 = getelementptr [79 x i8], ptr %7, i64 0, i64 %30
  store i8 32, ptr %31, align 1
  %32 = add i32 %28, 3
  %33 = and i64 %29, 4294967295
  %34 = getelementptr [79 x i8], ptr %7, i64 0, i64 %33
  store i8 32, ptr %34, align 1
  %35 = zext i32 %32 to i64
  %36 = getelementptr i8, ptr %7, i64 %35
  %37 = sub nsw i64 79, %35
  %38 = icmp ugt i32 %32, 79
  %39 = select i1 %38, i64 0, i64 %37
  %40 = icmp ne i64 %39, -1
  call void @llvm.assume(i1 %40)
  %41 = call ptr @__memset_chk(ptr noundef %36, i32 noundef 32, i64 noundef 68, i64 noundef %39) #23
  %42 = add i32 %28, 53
  br i1 %14, label %43, label %47

43:                                               ; preds = %27
  %44 = add i32 %28, 54
  %45 = zext i32 %42 to i64
  %46 = getelementptr [79 x i8], ptr %7, i64 0, i64 %45
  store i8 124, ptr %46, align 1
  br label %47

47:                                               ; preds = %._crit_edge77, %27, %43
  %.pre-phi = phi i64 [ %.pre, %._crit_edge77 ], [ %35, %27 ], [ %35, %43 ]
  %.149 = phi i32 [ %.04872, %._crit_edge77 ], [ %32, %27 ], [ %32, %43 ]
  %.1 = phi i32 [ %.04773, %._crit_edge77 ], [ %42, %27 ], [ %44, %43 ]
  %48 = getelementptr i8, ptr %.05569, i64 1
  %49 = load i8, ptr %.05569, align 1
  %50 = zext i8 %49 to i32
  %51 = lshr i32 %50, 4
  %52 = zext nneg i32 %51 to i64
  %53 = getelementptr [16 x i8], ptr @hex_dump_buffer.binhex, i64 0, i64 %52
  %54 = load i8, ptr %53, align 1
  %55 = add i32 %.149, 1
  %56 = getelementptr [79 x i8], ptr %7, i64 0, i64 %.pre-phi
  store i8 %54, ptr %56, align 1
  %57 = and i32 %50, 15
  %58 = zext nneg i32 %57 to i64
  %59 = getelementptr [16 x i8], ptr @hex_dump_buffer.binhex, i64 0, i64 %58
  %60 = load i8, ptr %59, align 1
  %61 = zext i32 %55 to i64
  %62 = getelementptr [79 x i8], ptr %7, i64 0, i64 %61
  store i8 %60, ptr %62, align 1
  %63 = add i32 %.149, 3
  br i1 %.not61, label %.thread, label %64

64:                                               ; preds = %47
  br i1 %15, label %65, label %69

65:                                               ; preds = %64
  %66 = zext i8 %49 to i64
  %67 = getelementptr [256 x i8], ptr @EBCDIC_translate_ASCII, i64 0, i64 %66
  %68 = load i8, ptr %67, align 1
  br label %69

69:                                               ; preds = %64, %65
  %.045 = phi i8 [ %68, %65 ], [ %49, %64 ]
  %70 = add i8 %.045, -32
  %or.cond = icmp ult i8 %70, 95
  %narrow = select i1 %or.cond, i8 %.045, i8 46
  %71 = add i32 %.1, 1
  %72 = zext i32 %.1 to i64
  %73 = getelementptr [79 x i8], ptr %7, i64 0, i64 %72
  store i8 %narrow, ptr %73, align 1
  %74 = add i32 %.05171, 1
  %75 = and i32 %74, 15
  %76 = icmp eq i32 %75, 0
  %77 = icmp eq i32 %74, %3
  %or.cond62 = or i1 %77, %76
  br i1 %or.cond62, label %82, label %93

.thread:                                          ; preds = %47
  %78 = add i32 %.05171, 1
  %79 = and i32 %78, 15
  %80 = icmp eq i32 %79, 0
  %81 = icmp eq i32 %78, %3
  %or.cond6264 = or i1 %81, %80
  br i1 %or.cond6264, label %.thread66, label %93

82:                                               ; preds = %69
  br i1 %14, label %83, label %.thread66

83:                                               ; preds = %82
  %84 = add i32 %.1, 2
  %85 = zext i32 %71 to i64
  %86 = getelementptr [79 x i8], ptr %7, i64 0, i64 %85
  store i8 124, ptr %86, align 1
  br label %.thread66

.thread66:                                        ; preds = %.thread, %83, %82
  %87 = phi i32 [ %74, %83 ], [ %74, %82 ], [ %78, %.thread ]
  %.4 = phi i32 [ %84, %83 ], [ %71, %82 ], [ %.1, %.thread ]
  %88 = zext i32 %.4 to i64
  %89 = getelementptr [79 x i8], ptr %7, i64 0, i64 %88
  store i8 0, ptr %89, align 1
  %90 = call zeroext i1 %0(ptr noundef %1, ptr noundef nonnull %7)
  br i1 %90, label %91, label %._crit_edge

91:                                               ; preds = %.thread66
  %92 = add i32 %.05270, 16
  br label %93

93:                                               ; preds = %.thread, %69, %91
  %94 = phi i32 [ %87, %91 ], [ %74, %69 ], [ %78, %.thread ]
  %.153 = phi i32 [ %92, %91 ], [ %.05270, %69 ], [ %.05270, %.thread ]
  %.3 = phi i32 [ %.4, %91 ], [ %71, %69 ], [ %.1, %.thread ]
  %.not75 = icmp ult i32 %94, %3
  br i1 %.not75, label %16, label %._crit_edge, !llvm.loop !36

._crit_edge:                                      ; preds = %.thread66, %93, %12
  %.lcssa68 = phi i1 [ true, %12 ], [ true, %93 ], [ false, %.thread66 ]
  call void @llvm.lifetime.end.p0(i64 79, ptr nonnull %7) #23
  ret i1 %.lcssa68
}